 Loader

 Timestamp is 62f9d203 (Sun Aug 14 21:56:35 2022)

 Preferred load address is 0000000180000000

 Start         Length     Name                   Class
 0001:00000000 00000010H .text                   CODE
 0001:00000010 000000a0H .text$mn                CODE
 0002:00000000 00000bd2H .managedcode$I          CODE
 0003:00000000 00000aecH .rdata                  DATA
 0003:00000aec 00000020H .rdata$voltmd           DATA
 0003:00000b0c 00000188H .rdata$zzzdbg           DATA
 0003:00000c94 000003fcH .xdata                  DATA
 0003:00001090 00000000H .edata                  DATA
 0004:00000000 000000e8H .data                   DATA
 0004:000000e8 00000030H .bss                    DATA
 0005:00000000 000001e0H .pdata                  DATA
 0006:00000000 00000008H .modules$I              DATA
 0007:00000000 000000a0H .rsrc$01                DATA
 0007:000000a0 00000438H .rsrc$02                DATA

  Address         Publics by Value              Rva+Base               Lib:Object

 0000:00000000       __AbsoluteZero             0000000000000000     <absolute>
 0000:00000000       ___safe_se_handler_count   0000000000000000     <absolute>
 0000:00000000       ___safe_se_handler_table   0000000000000000     <absolute>
 0000:00000000       __arm64x_extra_rfe_table   0000000000000000     <absolute>
 0000:00000000       __arm64x_extra_rfe_table_size 0000000000000000     <absolute>
 0000:00000000       __arm64x_native_entrypoint 0000000000000000     <absolute>
 0000:00000000       __arm64x_redirection_metadata 0000000000000000     <absolute>
 0000:00000000       __arm64x_redirection_metadata_count 0000000000000000     <absolute>
 0000:00000000       __dynamic_value_reloc_table 0000000000000000     <absolute>
 0000:00000000       __enclave_config           0000000000000000     <absolute>
 0000:00000000       __guard_check_icall_a64n_fptr 0000000000000000     <absolute>
 0000:00000000       __guard_eh_cont_count      0000000000000000     <absolute>
 0000:00000000       __guard_eh_cont_table      0000000000000000     <absolute>
 0000:00000000       __guard_fids_count         0000000000000000     <absolute>
 0000:00000000       __guard_fids_table         0000000000000000     <absolute>
 0000:00000000       __guard_flags              0000000000000000     <absolute>
 0000:00000000       __guard_iat_count          0000000000000000     <absolute>
 0000:00000000       __guard_iat_table          0000000000000000     <absolute>
 0000:00000000       __guard_longjmp_count      0000000000000000     <absolute>
 0000:00000000       __guard_longjmp_table      0000000000000000     <absolute>
 0000:00000000       __hybrid_auxiliary_iat     0000000000000000     <absolute>
 0000:00000000       __hybrid_auxiliary_iat_copy 0000000000000000     <absolute>
 0000:00000000       __hybrid_code_map          0000000000000000     <absolute>
 0000:00000000       __hybrid_code_map_count    0000000000000000     <absolute>
 0000:00000000       __x64_code_ranges_to_entry_points 0000000000000000     <absolute>
 0000:00000000       __x64_code_ranges_to_entry_points_count 0000000000000000     <absolute>
 0001:00000000       __GetNonGCStaticBase_Loader_Loader_Console 0000000180001000     Loader.obj
 0001:00000010       cpuid                      0000000180001010 f   NativeLib:cpuid.obj
 0001:00000020       cpuid_GetVendor            0000000180001020 f   NativeLib:cpuid.obj
 0002:00000000       Loader_Loader_Console__Init 0000000180002000     Loader.obj
 0002:00000030       Loader_Loader_Console__Clear 0000000180002030     Loader.obj
 0002:00000060       Loader_Loader_Console__Write 0000000180002060     Loader.obj
 0002:000000a0       Loader_Loader_Console__WriteLine 00000001800020a0     Loader.obj
 0002:000000d0       Loader_Loader_EFI_SIMPLE_TEXT_OUTPUT_PROTOCOL__OutputString 00000001800020d0     Loader.obj
 0002:00000200       Loader_Loader_EFI_SIMPLE_TEXT_OUTPUT_PROTOCOL__ClearScreen 0000000180002200     Loader.obj
 0002:000002c0       Loader_Loader_Native__cpuid 00000001800022c0     Loader.obj
 0002:00000360       Loader_Loader_Native__cpuid_GetVendor 0000000180002360     Loader.obj
 0002:00000420       Loader_Loader_Native__GetVendor 0000000180002420     Loader.obj
 0002:000004c0       Allocate                   00000001800024c0     Loader.obj
 0002:000004c0       Loader_Loader_Platform__Allocate 00000001800024c0     Loader.obj
 0002:00000500       Loader_Loader_Platform__ZeroMemory 0000000180002500     Loader.obj
 0002:00000500       ZeroMemory                 0000000180002500     Loader.obj
 0002:00000520       CopyMemory                 0000000180002520     Loader.obj
 0002:00000520       Loader_Loader_Platform__CopyMemory 0000000180002520     Loader.obj
 0002:00000540       Loader_Loader_Program__Main 0000000180002540     Loader.obj
 0002:00000550       EfiMain                    0000000180002550     Loader.obj
 0002:00000550       Loader_Loader_Program__EfiMain 0000000180002550     Loader.obj
 0002:00000600       IntPtr___ctor              0000000180002600     Loader.obj
 0002:00000640       IntPtr__op_Explicit        0000000180002640     Loader.obj
 0002:00000660       IntPtr__op_Explicit_0      0000000180002660     Loader.obj
 0002:00000690       Object___ctor              0000000180002690     Loader.obj
 0002:000006a0       CoreLib_System_Runtime_CompilerServices_RuntimeHelpers__get_OffsetToStringData 00000001800026a0     Loader.obj
 0002:000006c0       CoreLib_CoreLib_Platform__Allocate 00000001800026c0     Loader.obj
 0002:00000780       CoreLib_CoreLib_Platform__CopyMemory 0000000180002780     Loader.obj
 0002:00000820       CoreLib_CoreLib_Platform__ZeroMemory 0000000180002820     Loader.obj
 0002:000008b0       CoreLib_Internal_Runtime_EEType__get_ComponentSize 00000001800028b0     Loader.obj
 0002:000008e0       CoreLib_Internal_Runtime_EEType__get_BaseSize 00000001800028e0     Loader.obj
 0002:00000910       CoreLib_Internal_Runtime_CompilerHelpers_StartupCodeHelpers__RhpReversePInvoke 0000000180002910     Loader.obj
 0002:00000910       RhpReversePInvoke          0000000180002910     Loader.obj
 0002:00000920       CoreLib_Internal_Runtime_CompilerHelpers_StartupCodeHelpers__RhpReversePInvokeReturn 0000000180002920     Loader.obj
 0002:00000920       RhpReversePInvokeReturn    0000000180002920     Loader.obj
 0002:00000930       CoreLib_Internal_Runtime_CompilerHelpers_StartupCodeHelpers__RhpPInvoke 0000000180002930     Loader.obj
 0002:00000930       RhpPInvoke                 0000000180002930     Loader.obj
 0002:00000940       CoreLib_Internal_Runtime_CompilerHelpers_StartupCodeHelpers__RhpPInvokeReturn 0000000180002940     Loader.obj
 0002:00000940       RhpPInvokeReturn           0000000180002940     Loader.obj
 0002:00000950       CoreLib_Internal_Runtime_CompilerHelpers_StartupCodeHelpers__RhpFallbackFailFast 0000000180002950     Loader.obj
 0002:00000950       RhpFallbackFailFast        0000000180002950     Loader.obj
 0002:00000970       CoreLib_Internal_Runtime_CompilerHelpers_StartupCodeHelpers__RhpNewArray 0000000180002970     Loader.obj
 0002:00000970       RhpNewArray                0000000180002970     Loader.obj
 0002:00000b00       CoreLib_Internal_Runtime_CompilerHelpers_StartupCodeHelpers__SetEEType 0000000180002b00     Loader.obj
 0002:00000b50       Loader__Module___MainMethodWrapper 0000000180002b50     Loader.obj
 0002:00000b70       Loader__Module___StartupCodeMain 0000000180002b70     Loader.obj
 0002:00000b70       __managed__Main            0000000180002b70     Loader.obj
 0002:00000bc0       CoreLib_Internal_Runtime_CompilerServices_Unsafe__As<IntPtr__System___Canon> 0000000180002bc0     Loader.obj
 0003:00000000       __embedded_metadata        0000000180003000     Loader.obj
 0003:00000548       __embedded_metadata_End    0000000180003548     Loader.obj
 0003:00000548       __embedded_resourcedata    0000000180003548     Loader.obj
 0003:00000548       __embedded_resourcedata_End 0000000180003548     Loader.obj
 0003:00000548       __embedded_resourceindex   0000000180003548     Loader.obj
 0003:0000054b       __embedded_resourceindex_End 000000018000354b     Loader.obj
 0003:0000054b       __type_to_metadata_map     000000018000354b     Loader.obj
 0003:0000056e       __type_to_cctorContext_map 000000018000356e     Loader.obj
 0003:0000056e       __type_to_metadata_map_End 000000018000356e     Loader.obj
 0003:00000571       __method_to_entrypoint_map 0000000180003571     Loader.obj
 0003:00000571       __type_to_cctorContext_map_End 0000000180003571     Loader.obj
 0003:00000574       __delegate_marshalling_stub_map 0000000180003574     Loader.obj
 0003:00000574       __method_to_entrypoint_map_End 0000000180003574     Loader.obj
 0003:00000577       __delegate_marshalling_stub_map_End 0000000180003577     Loader.obj
 0003:00000577       __struct_marshalling_stub_map 0000000180003577     Loader.obj
 0003:0000057a       __array_type_map           000000018000357a     Loader.obj
 0003:0000057a       __struct_marshalling_stub_map_End 000000018000357a     Loader.obj
 0003:0000057d       __array_type_map_End       000000018000357d     Loader.obj
 0003:0000057d       __field_to_offset_map      000000018000357d     Loader.obj
 0003:00000580       __field_to_offset_map_End  0000000180003580     Loader.obj
 0003:00000580       __nativelayoutinfo         0000000180003580     Loader.obj
 0003:0000058b       __exact_method_instantiations 000000018000358b     Loader.obj
 0003:0000058b       __nativelayoutinfo_End     000000018000358b     Loader.obj
 0003:0000058e       __exact_method_instantiations_End 000000018000358e     Loader.obj
 0003:0000058e       __generic_types_hashtable  000000018000358e     Loader.obj
 0003:00000591       __generic_methods_hashtable 0000000180003591     Loader.obj
 0003:00000591       __generic_types_hashtable_End 0000000180003591     Loader.obj
 0003:0000059c       __generic_methods_hashtable_End 000000018000359c     Loader.obj
 0003:0000059c       __gvm_table                000000018000359c     Loader.obj
 0003:0000059f       __gvm_table_End            000000018000359f     Loader.obj
 0003:0000059f       __interface_gvm_table      000000018000359f     Loader.obj
 0003:000005a2       __GenericMethodsTemplateMap 00000001800035a2     Loader.obj
 0003:000005a2       __interface_gvm_table_End  00000001800035a2     Loader.obj
 0003:000005a5       __GenericMethodsTemplateMap_End 00000001800035a5     Loader.obj
 0003:000005a5       __GenericTypesTemplateMap  00000001800035a5     Loader.obj
 0003:000005a8       __GenericTypesTemplateMap_End 00000001800035a8     Loader.obj
 0003:000005a8       __block_reflection_type_map 00000001800035a8     Loader.obj
 0003:000005ba       _StaticsInfoHashtableNode  00000001800035ba     Loader.obj
 0003:000005ba       __block_reflection_type_map_End 00000001800035ba     Loader.obj
 0003:000005bd       _StaticsInfoHashtableNode_End 00000001800035bd     Loader.obj
 0003:000005bd       __VirtualInvokeMap         00000001800035bd     Loader.obj
 0003:000005c0       __DefaultConstructor_Map   00000001800035c0     Loader.obj
 0003:000005c0       __VirtualInvokeMap_End     00000001800035c0     Loader.obj
 0003:000005c7       __DefaultConstructor_Map_End 00000001800035c7     Loader.obj
 0003:000005c7       __external_CommonFixupsTable_references 00000001800035c7     Loader.obj
 0003:000005df       __external_CommonFixupsTable_references_End 00000001800035df     Loader.obj
 0003:000005df       __external_NativeReferences_references 00000001800035df     Loader.obj
 0003:000005ef       __external_NativeReferences_references_End 00000001800035ef     Loader.obj
 0003:000005ef       __external_NativeStatics_references 00000001800035ef     Loader.obj
 0003:000005ef       __external_NativeStatics_references_End 00000001800035ef     Loader.obj
 0003:000005f0       _stacktrace_methodRVA_to_token_mapping 00000001800035f0     Loader.obj
 0003:000006f0       _stacktrace_methodRVA_to_token_mapping_End 00000001800036f0     Loader.obj
 0003:000006f8       __GenericDict_CoreLib_Internal_Runtime_CompilerServices_Unsafe__As<IntPtr__Object> 00000001800036f8     Loader.obj
 0003:000006f8       __ReadyToRunHeader         00000001800036f8     Loader.obj
 0003:000009c0       __readonlydata_g_compilerEmbeddedSettingsBlob 00000001800039c0     Loader.obj
 0003:000009c0       g_compilerEmbeddedSettingsBlob 00000001800039c0     Loader.obj
 0003:000009c4       __readonlydata_g_requiredCpuFeatures 00000001800039c4     Loader.obj
 0003:000009c4       g_requiredCpuFeatures      00000001800039c4     Loader.obj
 0003:000009c8       ??_7Object@@6B@            00000001800039c8     Loader.obj
 0003:000009f0       ??_7String@@6B@            00000001800039f0     Loader.obj
 0003:00000a10       ??_7Loader__Module_@@6B@   0000000180003a10     Loader.obj
 0003:00000a30       ??_7Boxed_IntPtr@@6B@      0000000180003a30     Loader.obj
 0003:00000a50       ??_7CoreLib_Internal_Runtime_CompilerServices_Unsafe@@6B@ 0000000180003a50     Loader.obj
 0003:00000a74       __ehinfo_Loader_Loader_Native__cpuid 0000000180003a74     Loader.obj
 0003:00000a79       __ehinfo_Loader_Loader_Native__cpuid_GetVendor 0000000180003a79     Loader.obj
 0003:00000a7f       __ehinfo_CoreLib_CoreLib_Platform__Allocate 0000000180003a7f     Loader.obj
 0003:00000a85       __ehinfo_CoreLib_CoreLib_Platform__CopyMemory 0000000180003a85     Loader.obj
 0003:00000a8a       __ehinfo_CoreLib_CoreLib_Platform__ZeroMemory 0000000180003a8a     Loader.obj
 0003:00000a8f       __optionalfields_??_7Object@@6B@ 0000000180003a8f     Loader.obj
 0003:00000a92       __optionalfields_??_7CoreLib_Internal_Runtime_CompilerServices_Unsafe@@6B@ 0000000180003a92     Loader.obj
 0003:00000aec       __volatile_metadata        0000000180003aec     <linker-defined>
 0003:00000c94       _unwind0Loader_Loader_Console__Init 0000000180003c94     Loader.obj
 0003:00000cac       _unwind0Loader_Loader_Console__Clear 0000000180003cac     Loader.obj
 0003:00000cc4       _unwind0Loader_Loader_Console__Write 0000000180003cc4     Loader.obj
 0003:00000ce0       _unwind0Loader_Loader_Console__WriteLine 0000000180003ce0     Loader.obj
 0003:00000cfc       _unwind0Loader_Loader_EFI_SIMPLE_TEXT_OUTPUT_PROTOCOL__OutputString 0000000180003cfc     Loader.obj
 0003:00000d34       _unwind0Loader_Loader_EFI_SIMPLE_TEXT_OUTPUT_PROTOCOL__ClearScreen 0000000180003d34     Loader.obj
 0003:00000d60       _unwind0Loader_Loader_Native__cpuid 0000000180003d60     Loader.obj
 0003:00000d88       _unwind1Loader_Loader_Native__cpuid 0000000180003d88     Loader.obj
 0003:00000da0       _unwind0Loader_Loader_Native__cpuid_GetVendor 0000000180003da0     Loader.obj
 0003:00000dc8       _unwind1Loader_Loader_Native__cpuid_GetVendor 0000000180003dc8     Loader.obj
 0003:00000de0       _unwind0Loader_Loader_Native__GetVendor 0000000180003de0     Loader.obj
 0003:00000e00       _unwind0Loader_Loader_Platform__Allocate 0000000180003e00     Loader.obj
 0003:00000e10       _unwind0Loader_Loader_Platform__ZeroMemory 0000000180003e10     Loader.obj
 0003:00000e20       _unwind0Loader_Loader_Platform__CopyMemory 0000000180003e20     Loader.obj
 0003:00000e30       _unwind0Loader_Loader_Program__Main 0000000180003e30     Loader.obj
 0003:00000e40       _unwind0Loader_Loader_Program__EfiMain 0000000180003e40     Loader.obj
 0003:00000e64       _unwind0IntPtr___ctor      0000000180003e64     Loader.obj
 0003:00000e80       _unwind0IntPtr__op_Explicit 0000000180003e80     Loader.obj
 0003:00000e90       _unwind0IntPtr__op_Explicit_0 0000000180003e90     Loader.obj
 0003:00000ea8       _unwind0Object___ctor      0000000180003ea8     Loader.obj
 0003:00000ebc       _unwind0CoreLib_System_Runtime_CompilerServices_RuntimeHelpers__get_OffsetToStringData 0000000180003ebc     Loader.obj
 0003:00000ecc       _unwind0CoreLib_CoreLib_Platform__Allocate 0000000180003ecc     Loader.obj
 0003:00000ef4       _unwind1CoreLib_CoreLib_Platform__Allocate 0000000180003ef4     Loader.obj
 0003:00000f0c       _unwind0CoreLib_CoreLib_Platform__CopyMemory 0000000180003f0c     Loader.obj
 0003:00000f34       _unwind1CoreLib_CoreLib_Platform__CopyMemory 0000000180003f34     Loader.obj
 0003:00000f4c       _unwind0CoreLib_CoreLib_Platform__ZeroMemory 0000000180003f4c     Loader.obj
 0003:00000f74       _unwind1CoreLib_CoreLib_Platform__ZeroMemory 0000000180003f74     Loader.obj
 0003:00000f8c       _unwind0CoreLib_Internal_Runtime_EEType__get_ComponentSize 0000000180003f8c     Loader.obj
 0003:00000fa4       _unwind0CoreLib_Internal_Runtime_EEType__get_BaseSize 0000000180003fa4     Loader.obj
 0003:00000fbc       _unwind0CoreLib_Internal_Runtime_CompilerHelpers_StartupCodeHelpers__RhpReversePInvoke 0000000180003fbc     Loader.obj
 0003:00000fcc       _unwind0CoreLib_Internal_Runtime_CompilerHelpers_StartupCodeHelpers__RhpReversePInvokeReturn 0000000180003fcc     Loader.obj
 0003:00000fdc       _unwind0CoreLib_Internal_Runtime_CompilerHelpers_StartupCodeHelpers__RhpPInvoke 0000000180003fdc     Loader.obj
 0003:00000fec       _unwind0CoreLib_Internal_Runtime_CompilerHelpers_StartupCodeHelpers__RhpPInvokeReturn 0000000180003fec     Loader.obj
 0003:00000ffc       _unwind0CoreLib_Internal_Runtime_CompilerHelpers_StartupCodeHelpers__RhpFallbackFailFast 0000000180003ffc     Loader.obj
 0003:0000100c       _unwind0CoreLib_Internal_Runtime_CompilerHelpers_StartupCodeHelpers__RhpNewArray 000000018000400c     Loader.obj
 0003:00001038       _unwind0CoreLib_Internal_Runtime_CompilerHelpers_StartupCodeHelpers__SetEEType 0000000180004038     Loader.obj
 0003:0000104c       _unwind0Loader__Module___MainMethodWrapper 000000018000404c     Loader.obj
 0003:0000105c       _unwind0Loader__Module___StartupCodeMain 000000018000405c     Loader.obj
 0003:00001070       _unwind0CoreLib_Internal_Runtime_CompilerServices_Unsafe__As<IntPtr__System___Canon> 0000000180004070     Loader.obj
 0004:00000000       __FrozenSegmentRegionStart 0000000180005000     Loader.obj
 0004:00000008       __Str____B7F560303EE2CCA55615B53FCFF87C6AB2C55F9E71A6CEA93C61B572213E7075 0000000180005008     Loader.obj
 0004:00000028       __Str_Hello_world_from_C___35A8E436E61B912123F1D6AA3D9743172A0ADF90C99BFED84C0521187DD5722E 0000000180005028     Loader.obj
 0004:00000068       __Str_PhoenixOS_Loader_D57FED670F53441A8EE1A8863860B2B068D157D3BF58D72B11B61055FC8BB322 0000000180005068     Loader.obj
 0004:000000a0       __Str_s                    00000001800050a0     Loader.obj
 0004:000000b8       __Str_yay                  00000001800050b8     Loader.obj
 0004:000000d8       __FrozenSegmentRegionEnd   00000001800050d8     Loader.obj
 0004:000000d8       __typemanager_indirection  00000001800050d8     Loader.obj
 0004:000000e8       ?__NONGCSTATICS@Loader_Loader_Console@@ 00000001800050e8     Loader.obj
 0004:000000e8       __module_initializers      00000001800050e8     Loader.obj
 0004:000000e8       __module_initializers_End  00000001800050e8     Loader.obj
 0004:000000f0       __writableDataCoreLib_Internal_Runtime_CompilerServices_Unsafe 00000001800050f0     Loader.obj
 0004:000000f8       __writableDataIntPtr       00000001800050f8     Loader.obj
 0004:00000100       __writableDataLoader__Module_ 0000000180005100     Loader.obj
 0004:00000108       __writableDataObject       0000000180005108     Loader.obj
 0004:00000110       __writableDataString       0000000180005110     Loader.obj
 0006:00000000       __Module                   0000000180007000     Loader.obj

 entry point at        0002:00000550

 Static symbols

 0003:00001084       $unwind$cpuid_GetVendor    0000000180004084     NativeLib:cpuid.obj
 0007:000000a0       $R000000                   00000001800080a0     Loader.res
 0007:000002e8       $R000248                   00000001800082e8     Loader.res
