 Loader

 Timestamp is 62fc7e3a (Tue Aug 16 22:35:54 2022)

 Preferred load address is 0000000180000000

 Start         Length     Name                   Class
 0001:00000000 00000020H .text                   CODE
 0001:00000020 000001b0H .text$mn                CODE
 0002:00000000 00001452H .managedcode$I          CODE
 0003:00000000 00000e9cH .rdata                  DATA
 0003:00000e9c 00000020H .rdata$voltmd           DATA
 0003:00000ebc 00000188H .rdata$zzzdbg           DATA
 0003:00001044 000005dcH .xdata                  DATA
 0003:00001620 00000000H .edata                  DATA
 0004:00000000 00000130H .data                   DATA
 0004:00000130 00000058H .bss                    DATA
 0005:00000000 00000294H .pdata                  DATA
 0006:00000000 00000008H .modules$I              DATA
 0007:00000000 000000a0H .rsrc$01                DATA
 0007:000000a0 00000438H .rsrc$02                DATA

  Address         Publics by Value              Rva+Base               Lib:Object

 0000:00000000       __AbsoluteZero             0000000000000000     <absolute>
 0000:00000000       ___safe_se_handler_count   0000000000000000     <absolute>
 0000:00000000       ___safe_se_handler_table   0000000000000000     <absolute>
 0000:00000000       __arm64x_extra_rfe_table   0000000000000000     <absolute>
 0000:00000000       __arm64x_extra_rfe_table_size 0000000000000000     <absolute>
 0000:00000000       __arm64x_native_entrypoint 0000000000000000     <absolute>
 0000:00000000       __arm64x_redirection_metadata 0000000000000000     <absolute>
 0000:00000000       __arm64x_redirection_metadata_count 0000000000000000     <absolute>
 0000:00000000       __dynamic_value_reloc_table 0000000000000000     <absolute>
 0000:00000000       __enclave_config           0000000000000000     <absolute>
 0000:00000000       __guard_check_icall_a64n_fptr 0000000000000000     <absolute>
 0000:00000000       __guard_eh_cont_count      0000000000000000     <absolute>
 0000:00000000       __guard_eh_cont_table      0000000000000000     <absolute>
 0000:00000000       __guard_fids_count         0000000000000000     <absolute>
 0000:00000000       __guard_fids_table         0000000000000000     <absolute>
 0000:00000000       __guard_flags              0000000000000000     <absolute>
 0000:00000000       __guard_iat_count          0000000000000000     <absolute>
 0000:00000000       __guard_iat_table          0000000000000000     <absolute>
 0000:00000000       __guard_longjmp_count      0000000000000000     <absolute>
 0000:00000000       __guard_longjmp_table      0000000000000000     <absolute>
 0000:00000000       __hybrid_auxiliary_iat     0000000000000000     <absolute>
 0000:00000000       __hybrid_auxiliary_iat_copy 0000000000000000     <absolute>
 0000:00000000       __hybrid_code_map          0000000000000000     <absolute>
 0000:00000000       __hybrid_code_map_count    0000000000000000     <absolute>
 0000:00000000       __x64_code_ranges_to_entry_points 0000000000000000     <absolute>
 0000:00000000       __x64_code_ranges_to_entry_points_count 0000000000000000     <absolute>
 0001:00000000       __GetNonGCStaticBase_Loader_Platform 0000000180001000     Loader.obj
 0001:00000008       __GetGCStaticBase_String   0000000180001008     Loader.obj
 0001:00000020       cpuid                      0000000180001020 f   NativeLib:cpuid.obj
 0001:00000050       cpuid_GetVendor            0000000180001050 f   NativeLib:cpuid.obj
 0001:00000100       mbstowcs                   0000000180001100 f   CRT:stdlib.obj
 0001:00000190       strlen                     0000000180001190 f   CRT:string.obj
 0002:00000000       Internal_CompilerGenerated__Module___<CalliWithRuntimeMarshalling>UnmanagedCallingConvention, Static<Loader_Loader_EFI_STATUS__Loader_Loader_EFI_SIMPLE_TEXT_INPUT_PROTOCOL<Pointer>__Bool> 0000000180002000     Loader.obj
 0002:000000e0       Loader_Platform__Init      00000001800020e0     Loader.obj
 0002:00000110       ClearConsole               0000000180002110     Loader.obj
 0002:00000110       Loader_Platform__ClearConsole 0000000180002110     Loader.obj
 0002:00000160       Loader_Platform__Write     0000000180002160     Loader.obj
 0002:00000160       Write                      0000000180002160     Loader.obj
 0002:000001a0       Loader_Platform__WriteLine 00000001800021a0     Loader.obj
 0002:000001a0       WriteLine                  00000001800021a0     Loader.obj
 0002:000001d0       Allocate                   00000001800021d0     Loader.obj
 0002:000001d0       Loader_Platform__Allocate  00000001800021d0     Loader.obj
 0002:00000290       Loader_Platform__ZeroMemory 0000000180002290     Loader.obj
 0002:00000290       ZeroMemory                 0000000180002290     Loader.obj
 0002:00000320       CopyMemory                 0000000180002320     Loader.obj
 0002:00000320       Loader_Platform__CopyMemory 0000000180002320     Loader.obj
 0002:000003c0       Loader_CoreLib_System_Text_StringBuilder___ctor 00000001800023c0     Loader.obj
 0002:00000430       Loader_System_Array___ctor 0000000180002430     Loader.obj
 0002:00000460       Loader_System_Console__Clear 0000000180002460     Loader.obj
 0002:00000480       Loader_System_Console__Write 0000000180002480     Loader.obj
 0002:000004b0       Loader_System_Console__WriteLine 00000001800024b0     Loader.obj
 0002:000004e0       IntPtr___ctor              00000001800024e0     Loader.obj
 0002:00000520       IntPtr__op_Explicit        0000000180002520     Loader.obj
 0002:00000540       IntPtr__op_Explicit_0      0000000180002540     Loader.obj
 0002:00000570       Object___ctor              0000000180002570     Loader.obj
 0002:00000580       String__Ctor               0000000180002580     Loader.obj
 0002:00000620       String__Ctor_3             0000000180002620     Loader.obj
 0002:00000760       String___cctor             0000000180002760     Loader.obj
 0002:00000790       Loader_System_Runtime_CompilerServices_RuntimeHelpers__get_OffsetToStringData 0000000180002790     Loader.obj
 0002:000007b0       Loader_Internal_Runtime_EEType__get_ComponentSize 00000001800027b0     Loader.obj
 0002:000007e0       Loader_Internal_Runtime_EEType__get_BaseSize 00000001800027e0     Loader.obj
 0002:00000810       Loader_Internal_Runtime_CompilerHelpers_StartupCodeHelpers__RhpReversePInvoke 0000000180002810     Loader.obj
 0002:00000810       RhpReversePInvoke          0000000180002810     Loader.obj
 0002:00000820       Loader_Internal_Runtime_CompilerHelpers_StartupCodeHelpers__RhpReversePInvokeReturn 0000000180002820     Loader.obj
 0002:00000820       RhpReversePInvokeReturn    0000000180002820     Loader.obj
 0002:00000830       Loader_Internal_Runtime_CompilerHelpers_StartupCodeHelpers__RhpPInvoke 0000000180002830     Loader.obj
 0002:00000830       RhpPInvoke                 0000000180002830     Loader.obj
 0002:00000840       Loader_Internal_Runtime_CompilerHelpers_StartupCodeHelpers__RhpPInvokeReturn 0000000180002840     Loader.obj
 0002:00000840       RhpPInvokeReturn           0000000180002840     Loader.obj
 0002:00000850       Loader_Internal_Runtime_CompilerHelpers_StartupCodeHelpers__RhpFallbackFailFast 0000000180002850     Loader.obj
 0002:00000850       RhpFallbackFailFast        0000000180002850     Loader.obj
 0002:00000870       Loader_Internal_Runtime_CompilerHelpers_StartupCodeHelpers__RhpNewArray 0000000180002870     Loader.obj
 0002:00000870       RhpNewArray                0000000180002870     Loader.obj
 0002:00000a00       Loader_Internal_Runtime_CompilerHelpers_StartupCodeHelpers__SetEEType 0000000180002a00     Loader.obj
 0002:00000a50       Loader_Internal_Runtime_CompilerHelpers_StartupCodeHelpers__RhpAssignRef 0000000180002a50     Loader.obj
 0002:00000a50       RhpAssignRef               0000000180002a50     Loader.obj
 0002:00000a70       Loader_Internal_Runtime_CompilerHelpers_StartupCodeHelpers__RhpStelemRef 0000000180002a70     Loader.obj
 0002:00000a70       RhpStelemRef               0000000180002a70     Loader.obj
 0002:00000b50       Loader_Internal_Runtime_CompilerHelpers_StartupCodeHelpers__RhpNewFast 0000000180002b50     Loader.obj
 0002:00000b50       RhpNewFast                 0000000180002b50     Loader.obj
 0002:00000c20       Loader_Loader_EFI_SIMPLE_TEXT_INPUT_PROTOCOL__Reset 0000000180002c20     Loader.obj
 0002:00000c90       Loader_Loader_EFI_SIMPLE_TEXT_INPUT_PROTOCOL__ReadKeyStroke 0000000180002c90     Loader.obj
 0002:00000d90       Loader_Loader_EFI_SIMPLE_TEXT_OUTPUT_PROTOCOL__OutputString 0000000180002d90     Loader.obj
 0002:00000ec0       Loader_Loader_EFI_SIMPLE_TEXT_OUTPUT_PROTOCOL__ClearScreen 0000000180002ec0     Loader.obj
 0002:00000f80       Loader_Loader_Native__cpuid_GetVendor 0000000180002f80     Loader.obj
 0002:00001040       Loader_Loader_Native__mbstowcs 0000000180003040     Loader.obj
 0002:00001120       Loader_Loader_Native__GetVendor 0000000180003120     Loader.obj
 0002:00001230       Loader_Loader_Program__Main 0000000180003230     Loader.obj
 0002:00001240       EfiMain                    0000000180003240     Loader.obj
 0002:00001240       Loader_Loader_Program__EfiMain 0000000180003240     Loader.obj
 0002:00001360       Loader_System_Array_1<Char>___ctor 0000000180003360     Loader.obj
 0002:00001390       Loader__Module___MainMethodWrapper 0000000180003390     Loader.obj
 0002:000013b0       Loader__Module___StartupCodeMain 00000001800033b0     Loader.obj
 0002:000013b0       __managed__Main            00000001800033b0     Loader.obj
 0002:00001400       Loader_Internal_Runtime_CompilerServices_Unsafe__As<IntPtr__System___Canon> 0000000180003400     Loader.obj
 0002:00001420       Loader_Internal_Runtime_CompilerServices_Unsafe__As<System___Canon__IntPtr> 0000000180003420     Loader.obj
 0002:00001440       Loader_Internal_Runtime_CompilerServices_Unsafe__As<System___Canon__System___Canon> 0000000180003440     Loader.obj
 0003:00000000       __embedded_metadata        0000000180004000     Loader.obj
 0003:000006e3       __embedded_metadata_End    00000001800046e3     Loader.obj
 0003:000006e3       __embedded_resourcedata    00000001800046e3     Loader.obj
 0003:000006e3       __embedded_resourcedata_End 00000001800046e3     Loader.obj
 0003:000006e3       __embedded_resourceindex   00000001800046e3     Loader.obj
 0003:000006e6       __embedded_resourceindex_End 00000001800046e6     Loader.obj
 0003:000006e6       __type_to_metadata_map     00000001800046e6     Loader.obj
 0003:00000721       __type_to_cctorContext_map 0000000180004721     Loader.obj
 0003:00000721       __type_to_metadata_map_End 0000000180004721     Loader.obj
 0003:00000724       __method_to_entrypoint_map 0000000180004724     Loader.obj
 0003:00000724       __type_to_cctorContext_map_End 0000000180004724     Loader.obj
 0003:00000727       __delegate_marshalling_stub_map 0000000180004727     Loader.obj
 0003:00000727       __method_to_entrypoint_map_End 0000000180004727     Loader.obj
 0003:0000072a       __delegate_marshalling_stub_map_End 000000018000472a     Loader.obj
 0003:0000072a       __struct_marshalling_stub_map 000000018000472a     Loader.obj
 0003:0000072d       __array_type_map           000000018000472d     Loader.obj
 0003:0000072d       __struct_marshalling_stub_map_End 000000018000472d     Loader.obj
 0003:00000733       __array_type_map_End       0000000180004733     Loader.obj
 0003:00000733       __field_to_offset_map      0000000180004733     Loader.obj
 0003:00000736       __field_to_offset_map_End  0000000180004736     Loader.obj
 0003:00000736       __nativelayoutinfo         0000000180004736     Loader.obj
 0003:00000741       __exact_method_instantiations 0000000180004741     Loader.obj
 0003:00000741       __nativelayoutinfo_End     0000000180004741     Loader.obj
 0003:00000744       __exact_method_instantiations_End 0000000180004744     Loader.obj
 0003:00000744       __generic_types_hashtable  0000000180004744     Loader.obj
 0003:00000747       __generic_methods_hashtable 0000000180004747     Loader.obj
 0003:00000747       __generic_types_hashtable_End 0000000180004747     Loader.obj
 0003:00000762       __generic_methods_hashtable_End 0000000180004762     Loader.obj
 0003:00000762       __gvm_table                0000000180004762     Loader.obj
 0003:00000765       __gvm_table_End            0000000180004765     Loader.obj
 0003:00000765       __interface_gvm_table      0000000180004765     Loader.obj
 0003:00000768       __GenericMethodsTemplateMap 0000000180004768     Loader.obj
 0003:00000768       __interface_gvm_table_End  0000000180004768     Loader.obj
 0003:0000076b       __GenericMethodsTemplateMap_End 000000018000476b     Loader.obj
 0003:0000076b       __GenericTypesTemplateMap  000000018000476b     Loader.obj
 0003:0000076e       __GenericTypesTemplateMap_End 000000018000476e     Loader.obj
 0003:0000076e       __block_reflection_type_map 000000018000476e     Loader.obj
 0003:0000078c       _StaticsInfoHashtableNode  000000018000478c     Loader.obj
 0003:0000078c       __block_reflection_type_map_End 000000018000478c     Loader.obj
 0003:0000078f       _StaticsInfoHashtableNode_End 000000018000478f     Loader.obj
 0003:0000078f       __VirtualInvokeMap         000000018000478f     Loader.obj
 0003:00000792       __DefaultConstructor_Map   0000000180004792     Loader.obj
 0003:00000792       __VirtualInvokeMap_End     0000000180004792     Loader.obj
 0003:0000079d       __DefaultConstructor_Map_End 000000018000479d     Loader.obj
 0003:0000079d       __external_CommonFixupsTable_references 000000018000479d     Loader.obj
 0003:000007cd       __external_CommonFixupsTable_references_End 00000001800047cd     Loader.obj
 0003:000007cd       __external_NativeReferences_references 00000001800047cd     Loader.obj
 0003:000007e9       __external_NativeReferences_references_End 00000001800047e9     Loader.obj
 0003:000007e9       __external_NativeStatics_references 00000001800047e9     Loader.obj
 0003:000007e9       __external_NativeStatics_references_End 00000001800047e9     Loader.obj
 0003:000007f0       _stacktrace_methodRVA_to_token_mapping 00000001800047f0     Loader.obj
 0003:00000958       _stacktrace_methodRVA_to_token_mapping_End 0000000180004958     Loader.obj
 0003:00000960       __GenericDict_Loader_Internal_Runtime_CompilerServices_Unsafe__As<IntPtr__Object> 0000000180004960     Loader.obj
 0003:00000968       __GenericDict_Loader_Internal_Runtime_CompilerServices_Unsafe__As<Object__IntPtr> 0000000180004968     Loader.obj
 0003:00000970       __GenericDict_Loader_Internal_Runtime_CompilerServices_Unsafe__As<Object__String> 0000000180004970     Loader.obj
 0003:00000970       __ReadyToRunHeader         0000000180004970     Loader.obj
 0003:00000c68       __readonlydata_g_compilerEmbeddedSettingsBlob 0000000180004c68     Loader.obj
 0003:00000c68       g_compilerEmbeddedSettingsBlob 0000000180004c68     Loader.obj
 0003:00000c6c       __readonlydata_g_requiredCpuFeatures 0000000180004c6c     Loader.obj
 0003:00000c6c       g_requiredCpuFeatures      0000000180004c6c     Loader.obj
 0003:00000c88       ??_7Loader_CoreLib_System_Text_StringBuilder@@6B@ 0000000180004c88     Loader.obj
 0003:00000cb0       ??_7Loader_System_Array@@6B@ 0000000180004cb0     Loader.obj
 0003:00000cd8       ??_7Object@@6B@            0000000180004cd8     Loader.obj
 0003:00000d00       ??_7String@@6B@            0000000180004d00     Loader.obj
 0003:00000d20       ??_7__Array<Char>@@6B@     0000000180004d20     Loader.obj
 0003:00000d58       __GCStaticEEType_01        0000000180004d58     Loader.obj
 0003:00000d68       ??_7Loader__Module_@@6B@   0000000180004d68     Loader.obj
 0003:00000d88       ??_7Boxed_IntPtr@@6B@      0000000180004d88     Loader.obj
 0003:00000da8       ??_7Boxed_Char@@6B@        0000000180004da8     Loader.obj
 0003:00000dd0       ??_7Loader_System_ValueType@@6B@ 0000000180004dd0     Loader.obj
 0003:00000df8       ??_7Loader_Internal_Runtime_CompilerServices_Unsafe@@6B@ 0000000180004df8     Loader.obj
 0003:00000e1c       __ehinfo_Internal_CompilerGenerated__Module___<CalliWithRuntimeMarshalling>UnmanagedCallingConvention, Static<Loader_Loader_EFI_STATUS__Loader_Loader_EFI_SIMPLE_TEXT_INPUT_PROTOCOL<Pointer>__Bool> 0000000180004e1c     Loader.obj
 0003:00000e22       __ehinfo_Loader_Loader_Native__cpuid_GetVendor 0000000180004e22     Loader.obj
 0003:00000e28       __ehinfo_Loader_Loader_Native__mbstowcs 0000000180004e28     Loader.obj
 0003:00000e2e       __optionalfields_??_7Loader_CoreLib_System_Text_StringBuilder@@6B@ 0000000180004e2e     Loader.obj
 0003:00000e30       __optionalfields_??_7Loader_System_Array@@6B@ 0000000180004e30     Loader.obj
 0003:00000e36       __optionalfields_??_7Object@@6B@ 0000000180004e36     Loader.obj
 0003:00000e39       __optionalfields_??_7Boxed_Char@@6B@ 0000000180004e39     Loader.obj
 0003:00000e3b       __optionalfields_??_7Loader_System_ValueType@@6B@ 0000000180004e3b     Loader.obj
 0003:00000e42       __optionalfields_??_7Loader_Internal_Runtime_CompilerServices_Unsafe@@6B@ 0000000180004e42     Loader.obj
 0003:00000e9c       __volatile_metadata        0000000180004e9c     <linker-defined>
 0003:00001044       _unwind0Internal_CompilerGenerated__Module___<CalliWithRuntimeMarshalling>UnmanagedCallingConvention, Static<Loader_Loader_EFI_STATUS__Loader_Loader_EFI_SIMPLE_TEXT_INPUT_PROTOCOL<Pointer>__Bool> 0000000180005044     Loader.obj
 0003:00001070       _unwind1Internal_CompilerGenerated__Module___<CalliWithRuntimeMarshalling>UnmanagedCallingConvention, Static<Loader_Loader_EFI_STATUS__Loader_Loader_EFI_SIMPLE_TEXT_INPUT_PROTOCOL<Pointer>__Bool> 0000000180005070     Loader.obj
 0003:00001088       _unwind0Loader_Platform__Init 0000000180005088     Loader.obj
 0003:000010a0       _unwind0Loader_Platform__ClearConsole 00000001800050a0     Loader.obj
 0003:000010b8       _unwind0Loader_Platform__Write 00000001800050b8     Loader.obj
 0003:000010d4       _unwind0Loader_Platform__WriteLine 00000001800050d4     Loader.obj
 0003:000010f0       _unwind0Loader_Platform__Allocate 00000001800050f0     Loader.obj
 0003:00001118       _unwind0Loader_Platform__ZeroMemory 0000000180005118     Loader.obj
 0003:0000113c       _unwind0Loader_Platform__CopyMemory 000000018000513c     Loader.obj
 0003:00001160       _unwind0Loader_CoreLib_System_Text_StringBuilder___ctor 0000000180005160     Loader.obj
 0003:00001188       _unwind0Loader_System_Array___ctor 0000000180005188     Loader.obj
 0003:000011a4       _unwind0Loader_System_Console__Clear 00000001800051a4     Loader.obj
 0003:000011b8       _unwind0Loader_System_Console__Write 00000001800051b8     Loader.obj
 0003:000011d4       _unwind0Loader_System_Console__WriteLine 00000001800051d4     Loader.obj
 0003:000011f0       _unwind0IntPtr___ctor      00000001800051f0     Loader.obj
 0003:0000120c       _unwind0IntPtr__op_Explicit 000000018000520c     Loader.obj
 0003:0000121c       _unwind0IntPtr__op_Explicit_0 000000018000521c     Loader.obj
 0003:00001234       _unwind0Object___ctor      0000000180005234     Loader.obj
 0003:00001248       _unwind0String__Ctor       0000000180005248     Loader.obj
 0003:00001264       _unwind0String__Ctor_3     0000000180005264     Loader.obj
 0003:0000129c       _unwind0String___cctor     000000018000529c     Loader.obj
 0003:000012b8       _unwind0Loader_System_Runtime_CompilerServices_RuntimeHelpers__get_OffsetToStringData 00000001800052b8     Loader.obj
 0003:000012c8       _unwind0Loader_Internal_Runtime_EEType__get_ComponentSize 00000001800052c8     Loader.obj
 0003:000012e0       _unwind0Loader_Internal_Runtime_EEType__get_BaseSize 00000001800052e0     Loader.obj
 0003:000012f8       _unwind0Loader_Internal_Runtime_CompilerHelpers_StartupCodeHelpers__RhpReversePInvoke 00000001800052f8     Loader.obj
 0003:00001308       _unwind0Loader_Internal_Runtime_CompilerHelpers_StartupCodeHelpers__RhpReversePInvokeReturn 0000000180005308     Loader.obj
 0003:00001318       _unwind0Loader_Internal_Runtime_CompilerHelpers_StartupCodeHelpers__RhpPInvoke 0000000180005318     Loader.obj
 0003:00001328       _unwind0Loader_Internal_Runtime_CompilerHelpers_StartupCodeHelpers__RhpPInvokeReturn 0000000180005328     Loader.obj
 0003:00001338       _unwind0Loader_Internal_Runtime_CompilerHelpers_StartupCodeHelpers__RhpFallbackFailFast 0000000180005338     Loader.obj
 0003:00001348       _unwind0Loader_Internal_Runtime_CompilerHelpers_StartupCodeHelpers__RhpNewArray 0000000180005348     Loader.obj
 0003:00001374       _unwind0Loader_Internal_Runtime_CompilerHelpers_StartupCodeHelpers__SetEEType 0000000180005374     Loader.obj
 0003:00001388       _unwind0Loader_Internal_Runtime_CompilerHelpers_StartupCodeHelpers__RhpAssignRef 0000000180005388     Loader.obj
 0003:00001398       _unwind0Loader_Internal_Runtime_CompilerHelpers_StartupCodeHelpers__RhpStelemRef 0000000180005398     Loader.obj
 0003:000013c0       _unwind0Loader_Internal_Runtime_CompilerHelpers_StartupCodeHelpers__RhpNewFast 00000001800053c0     Loader.obj
 0003:000013e8       _unwind0Loader_Loader_EFI_SIMPLE_TEXT_INPUT_PROTOCOL__Reset 00000001800053e8     Loader.obj
 0003:00001404       _unwind0Loader_Loader_EFI_SIMPLE_TEXT_INPUT_PROTOCOL__ReadKeyStroke 0000000180005404     Loader.obj
 0003:00001434       _unwind0Loader_Loader_EFI_SIMPLE_TEXT_OUTPUT_PROTOCOL__OutputString 0000000180005434     Loader.obj
 0003:0000146c       _unwind0Loader_Loader_EFI_SIMPLE_TEXT_OUTPUT_PROTOCOL__ClearScreen 000000018000546c     Loader.obj
 0003:00001498       _unwind0Loader_Loader_Native__cpuid_GetVendor 0000000180005498     Loader.obj
 0003:000014c0       _unwind1Loader_Loader_Native__cpuid_GetVendor 00000001800054c0     Loader.obj
 0003:000014d8       _unwind0Loader_Loader_Native__mbstowcs 00000001800054d8     Loader.obj
 0003:00001504       _unwind1Loader_Loader_Native__mbstowcs 0000000180005504     Loader.obj
 0003:0000151c       _unwind0Loader_Loader_Native__GetVendor 000000018000551c     Loader.obj
 0003:00001540       _unwind0Loader_Loader_Program__Main 0000000180005540     Loader.obj
 0003:00001550       _unwind0Loader_Loader_Program__EfiMain 0000000180005550     Loader.obj
 0003:00001580       _unwind0Loader_System_Array_1<Char>___ctor 0000000180005580     Loader.obj
 0003:0000159c       _unwind0Loader__Module___MainMethodWrapper 000000018000559c     Loader.obj
 0003:000015ac       _unwind0Loader__Module___StartupCodeMain 00000001800055ac     Loader.obj
 0003:000015c0       _unwind0Loader_Internal_Runtime_CompilerServices_Unsafe__As<IntPtr__System___Canon> 00000001800055c0     Loader.obj
 0003:000015d4       _unwind0Loader_Internal_Runtime_CompilerServices_Unsafe__As<System___Canon__IntPtr> 00000001800055d4     Loader.obj
 0003:000015e8       _unwind0Loader_Internal_Runtime_CompilerServices_Unsafe__As<System___Canon__System___Canon> 00000001800055e8     Loader.obj
 0004:00000000       __FrozenSegmentRegionStart 0000000180006000     Loader.obj
 0004:00000008       __Str_                     0000000180006008     Loader.obj
 0004:00000020       __Str____B7F560303EE2CCA55615B53FCFF87C6AB2C55F9E71A6CEA93C61B572213E7075 0000000180006020     Loader.obj
 0004:00000040       __Str_Hello_world_from_C___35A8E436E61B912123F1D6AA3D9743172A0ADF90C99BFED84C0521187DD5722E 0000000180006040     Loader.obj
 0004:00000080       __Str_PhoenixOS_Loader_D57FED670F53441A8EE1A8863860B2B068D157D3BF58D72B11B61055FC8BB322 0000000180006080     Loader.obj
 0004:000000b8       __Str_Press_any_key_to_continue____1BFC31659D6B56EAAC507616DCD46D6BA9ECA92B2644FC21C341F22E17176759 00000001800060b8     Loader.obj
 0004:00000108       __EagerCctorStart          0000000180006108     Loader.obj
 0004:00000108       __FrozenSegmentRegionEnd   0000000180006108     Loader.obj
 0004:00000110       __EagerCctorEnd            0000000180006110     Loader.obj
 0004:00000110       __GCStaticRegionStart      0000000180006110     Loader.obj
 0004:00000118       __GCStaticRegionEnd        0000000180006118     Loader.obj
 0004:00000118       __typemanager_indirection  0000000180006118     Loader.obj
 0004:00000128       ?__GCSTATICS@String@@      0000000180006128     Loader.obj
 0004:00000130       ?__NONGCSTATICS@Loader_Platform@@ 0000000180006130     Loader.obj
 0004:00000130       __module_initializers      0000000180006130     Loader.obj
 0004:00000130       __module_initializers_End  0000000180006130     Loader.obj
 0004:00000138       __writableDataChar         0000000180006138     Loader.obj
 0004:00000140       __writableDataIntPtr       0000000180006140     Loader.obj
 0004:00000148       __writableDataLoader_CoreLib_System_Text_StringBuilder 0000000180006148     Loader.obj
 0004:00000150       __writableDataLoader_Internal_Runtime_CompilerServices_Unsafe 0000000180006150     Loader.obj
 0004:00000158       __writableDataLoader_System_Array 0000000180006158     Loader.obj
 0004:00000160       __writableDataLoader_System_ValueType 0000000180006160     Loader.obj
 0004:00000168       __writableDataLoader__Module_ 0000000180006168     Loader.obj
 0004:00000170       __writableDataObject       0000000180006170     Loader.obj
 0004:00000178       __writableDataString       0000000180006178     Loader.obj
 0004:00000180       __writableData__Array<Char> 0000000180006180     Loader.obj
 0006:00000000       __Module                   0000000180008000     Loader.obj

 entry point at        0002:00001240

 Static symbols

 0003:000015fc       $unwind$cpuid              00000001800055fc     NativeLib:cpuid.obj
 0003:00001604       $unwind$cpuid_GetVendor    0000000180005604     NativeLib:cpuid.obj
 0003:00001610       $unwind$mbstowcs           0000000180005610     CRT:stdlib.obj
 0003:00001618       $unwind$strlen             0000000180005618     CRT:string.obj
 0007:000000a0       $R000000                   00000001800090a0     Loader.res
 0007:000002e8       $R000248                   00000001800092e8     Loader.res
